target datalayout = "e-m:e-p270:32:32-p271:32:32-p272:64:64-i64:64-i128:128-f80:128-n8:16:32:64-S128"
target triple = "x86_64-pc-linux-gnu"

%struct.used_atom = type { i32, ptr, i32, i32, %union.anon }
%union.anon = type { %struct.anon.1 }
%struct.anon.1 = type { i32, %struct.process_trailer_options, ptr, i32 }
%struct.process_trailer_options = type { i32, i32, i32, i32, i32, i32, i32, i32, ptr, ptr, ptr, ptr }
%struct.anon.7 = type { i32 }

@.str.24 = private unnamed_addr constant [1 x i8] zeroinitializer, align 1
@git_gettext_enabled = external global i32, align 4
@.str.81 = private unnamed_addr constant [35 x i8] c"unrecognized %%(%.*s) argument: %s\00", align 1
@.str.86 = private unnamed_addr constant [8 x i8] c"mailmap\00", align 1
@.str.87 = private unnamed_addr constant [5 x i8] c"trim\00", align 1
@.str.88 = private unnamed_addr constant [10 x i8] c"localpart\00", align 1

; Function Attrs: inlinehint nounwind uwtable
define internal ptr @_(ptr noundef %0) #1 {
  %2 = alloca ptr, align 8
  %3 = alloca ptr, align 8
  store ptr %0, ptr %3, align 8, !tbaa !13
  %4 = load ptr, ptr %3, align 8, !tbaa !13
  %5 = load i8, ptr %4, align 1, !tbaa !14
  %6 = icmp ne i8 %5, 0
  br i1 %6, label %8, label %7

7:                                                ; preds = %1
  store ptr @.str.24, ptr %2, align 8
  br label %16

8:                                                ; preds = %1
  %9 = load i32, ptr @git_gettext_enabled, align 4, !tbaa !15
  %10 = icmp ne i32 %9, 0
  br i1 %10, label %13, label %11

11:                                               ; preds = %8
  %12 = load ptr, ptr %3, align 8, !tbaa !13
  store ptr %12, ptr %2, align 8
  br label %16

13:                                               ; preds = %8
  %14 = load ptr, ptr %3, align 8, !tbaa !13
  %15 = call ptr @dcgettext(ptr noundef null, ptr noundef %14, i32 noundef 5) #11
  store ptr %15, ptr %2, align 8
  br label %16

16:                                               ; preds = %13, %11, %7
  %17 = load ptr, ptr %2, align 8
  ret ptr %17
}

; Function Attrs: inlinehint nounwind uwtable
define internal zeroext i1 @skip_prefix(ptr noundef %0, ptr noundef %1, ptr noundef %2) #1 {
  %4 = alloca i1, align 1
  %5 = alloca ptr, align 8
  %6 = alloca ptr, align 8
  %7 = alloca ptr, align 8
  store ptr %0, ptr %5, align 8, !tbaa !13
  store ptr %1, ptr %6, align 8, !tbaa !13
  store ptr %2, ptr %7, align 8, !tbaa !53
  br label %8

8:                                                ; preds = %16, %3
  %9 = load ptr, ptr %6, align 8, !tbaa !13
  %10 = load i8, ptr %9, align 1, !tbaa !14
  %11 = icmp ne i8 %10, 0
  br i1 %11, label %15, label %12

12:                                               ; preds = %8
  %13 = load ptr, ptr %5, align 8, !tbaa !13
  %14 = load ptr, ptr %7, align 8, !tbaa !53
  store ptr %13, ptr %14, align 8, !tbaa !13
  store i1 true, ptr %4, align 1
  br label %27

15:                                               ; preds = %8
  br label %16

16:                                               ; preds = %15
  %17 = load ptr, ptr %5, align 8, !tbaa !13
  %18 = getelementptr inbounds nuw i8, ptr %17, i32 1
  store ptr %18, ptr %5, align 8, !tbaa !13
  %19 = load i8, ptr %17, align 1, !tbaa !14
  %20 = sext i8 %19 to i32
  %21 = load ptr, ptr %6, align 8, !tbaa !13
  %22 = getelementptr inbounds nuw i8, ptr %21, i32 1
  store ptr %22, ptr %6, align 8, !tbaa !13
  %23 = load i8, ptr %21, align 1, !tbaa !14
  %24 = sext i8 %23 to i32
  %25 = icmp eq i32 %20, %24
  br i1 %25, label %8, label %26, !llvm.loop !55

26:                                               ; preds = %16
  store i1 false, ptr %4, align 1
  br label %27

27:                                               ; preds = %26, %12
  %28 = load i1, ptr %4, align 1
  ret i1 %28
}

; Function Attrs: nounwind uwtable
define internal i32 @err_bad_arg(ptr noundef %0, ptr noundef %1, ptr noundef %2) #0 {
  %4 = alloca ptr, align 8
  %5 = alloca ptr, align 8
  %6 = alloca ptr, align 8
  %7 = alloca i64, align 8
  store ptr %0, ptr %4, align 8, !tbaa !36
  store ptr %1, ptr %5, align 8, !tbaa !13
  store ptr %2, ptr %6, align 8, !tbaa !13
  call void @llvm.lifetime.start.p0(i64 8, ptr %7) #11
  %8 = load ptr, ptr %5, align 8, !tbaa !13
  %9 = call ptr @strchrnul(ptr noundef %8, i32 noundef 58) #12
  %10 = load ptr, ptr %5, align 8, !tbaa !13
  %11 = ptrtoint ptr %9 to i64
  %12 = ptrtoint ptr %10 to i64
  %13 = sub i64 %11, %12
  store i64 %13, ptr %7, align 8, !tbaa !71
  %14 = load ptr, ptr %4, align 8, !tbaa !36
  %15 = call ptr @_(ptr noundef @.str.81)
  %16 = load i64, ptr %7, align 8, !tbaa !71
  %17 = trunc i64 %16 to i32
  %18 = load ptr, ptr %5, align 8, !tbaa !13
  %19 = load ptr, ptr %6, align 8, !tbaa !13
  call void (ptr, ptr, ...) @strbuf_addf(ptr noundef %14, ptr noundef %15, i32 noundef %17, ptr noundef %18, ptr noundef %19)
  call void @llvm.lifetime.end.p0(i64 8, ptr %7) #11
  ret i32 -1
}

; Function Attrs: nounwind uwtable
define internal i32 @email_atom_option_parser(ptr noundef %0) #0 {
  %2 = alloca i32, align 4
  %3 = alloca ptr, align 8
  store ptr %0, ptr %3, align 8, !tbaa !53
  %4 = load ptr, ptr %3, align 8, !tbaa !53
  %5 = load ptr, ptr %4, align 8, !tbaa !13
  %6 = icmp ne ptr %5, null
  br i1 %6, label %8, label %7

7:                                                ; preds = %1
  store i32 0, ptr %2, align 4
  br label %27

8:                                                ; preds = %1
  %9 = load ptr, ptr %3, align 8, !tbaa !53
  %10 = load ptr, ptr %9, align 8, !tbaa !13
  %11 = load ptr, ptr %3, align 8, !tbaa !53
  %12 = call zeroext i1 @skip_prefix(ptr noundef %10, ptr noundef @.str.87, ptr noundef %11)
  br i1 %12, label %13, label %14

13:                                               ; preds = %8
  store i32 1, ptr %2, align 4
  br label %27

14:                                               ; preds = %8
  %15 = load ptr, ptr %3, align 8, !tbaa !53
  %16 = load ptr, ptr %15, align 8, !tbaa !13
  %17 = load ptr, ptr %3, align 8, !tbaa !53
  %18 = call zeroext i1 @skip_prefix(ptr noundef %16, ptr noundef @.str.88, ptr noundef %17)
  br i1 %18, label %19, label %20

19:                                               ; preds = %14
  store i32 2, ptr %2, align 4
  br label %27

20:                                               ; preds = %14
  %21 = load ptr, ptr %3, align 8, !tbaa !53
  %22 = load ptr, ptr %21, align 8, !tbaa !13
  %23 = load ptr, ptr %3, align 8, !tbaa !53
  %24 = call zeroext i1 @skip_prefix(ptr noundef %22, ptr noundef @.str.86, ptr noundef %23)
  br i1 %24, label %25, label %26

25:                                               ; preds = %20
  store i32 4, ptr %2, align 4
  br label %27

26:                                               ; preds = %20
  store i32 -1, ptr %2, align 4
  br label %27

27:                                               ; preds = %26, %25, %19, %13, %7
  %28 = load i32, ptr %2, align 4
  ret i32 %28
}

; Function Attrs: nounwind uwtable
define internal i32 @person_email_atom_parser(ptr noundef %0, ptr noundef %1, ptr noundef %2, ptr noundef %3) #0 {
  %5 = alloca i32, align 4
  %6 = alloca ptr, align 8
  %7 = alloca ptr, align 8
  %8 = alloca ptr, align 8
  %9 = alloca ptr, align 8
  %10 = alloca i32, align 4
  %11 = alloca ptr, align 8
  %12 = alloca i32, align 4
  store ptr %0, ptr %6, align 8, !tbaa !17
  store ptr %1, ptr %7, align 8, !tbaa !26
  store ptr %2, ptr %8, align 8, !tbaa !13
  store ptr %3, ptr %9, align 8, !tbaa !36
  br label %13

13:                                               ; preds = %57, %4
  call void @llvm.lifetime.start.p0(i64 4, ptr %10) #11
  %14 = call i32 @email_atom_option_parser(ptr noundef %8)
  store i32 %14, ptr %10, align 4, !tbaa !15
  call void @llvm.lifetime.start.p0(i64 8, ptr %11) #11
  %15 = load ptr, ptr %8, align 8, !tbaa !13
  store ptr %15, ptr %11, align 8, !tbaa !13
  %16 = load i32, ptr %10, align 4, !tbaa !15
  %17 = icmp slt i32 %16, 0
  br i1 %17, label %18, label %25

18:                                               ; preds = %13
  %19 = load ptr, ptr %9, align 8, !tbaa !36
  %20 = load ptr, ptr %7, align 8, !tbaa !26
  %21 = getelementptr inbounds nuw %struct.used_atom, ptr %20, i32 0, i32 1
  %22 = load ptr, ptr %21, align 8, !tbaa !31
  %23 = load ptr, ptr %11, align 8, !tbaa !13
  %24 = call i32 @err_bad_arg(ptr noundef %19, ptr noundef %22, ptr noundef %23)
  store i32 %24, ptr %5, align 4
  store i32 1, ptr %12, align 4
  br label %55

25:                                               ; preds = %13
  %26 = load i32, ptr %10, align 4, !tbaa !15
  %27 = load ptr, ptr %7, align 8, !tbaa !26
  %28 = getelementptr inbounds nuw %struct.used_atom, ptr %27, i32 0, i32 4
  %29 = getelementptr inbounds nuw %struct.anon.7, ptr %28, i32 0, i32 0
  %30 = load i32, ptr %29, align 8, !tbaa !14
  %31 = or i32 %30, %26
  store i32 %31, ptr %29, align 8, !tbaa !14
  %32 = load ptr, ptr %8, align 8, !tbaa !13
  %33 = icmp ne ptr %32, null
  br i1 %33, label %34, label %38

34:                                               ; preds = %25
  %35 = load ptr, ptr %8, align 8, !tbaa !13
  %36 = load i8, ptr %35, align 1, !tbaa !14
  %37 = icmp ne i8 %36, 0
  br i1 %37, label %39, label %38

38:                                               ; preds = %34, %25
  store i32 2, ptr %12, align 4
  br label %55

39:                                               ; preds = %34
  %40 = load ptr, ptr %8, align 8, !tbaa !13
  %41 = load i8, ptr %40, align 1, !tbaa !14
  %42 = sext i8 %41 to i32
  %43 = icmp eq i32 %42, 44
  br i1 %43, label %44, label %47

44:                                               ; preds = %39
  %45 = load ptr, ptr %8, align 8, !tbaa !13
  %46 = getelementptr inbounds nuw i8, ptr %45, i32 1
  store ptr %46, ptr %8, align 8, !tbaa !13
  br label %54

47:                                               ; preds = %39
  %48 = load ptr, ptr %9, align 8, !tbaa !36
  %49 = load ptr, ptr %7, align 8, !tbaa !26
  %50 = getelementptr inbounds nuw %struct.used_atom, ptr %49, i32 0, i32 1
  %51 = load ptr, ptr %50, align 8, !tbaa !31
  %52 = load ptr, ptr %11, align 8, !tbaa !13
  %53 = call i32 @err_bad_arg(ptr noundef %48, ptr noundef %51, ptr noundef %52)
  store i32 %53, ptr %5, align 4
  store i32 1, ptr %12, align 4
  br label %55

54:                                               ; preds = %44
  store i32 0, ptr %12, align 4
  br label %55

55:                                               ; preds = %54, %47, %38, %18
  call void @llvm.lifetime.end.p0(i64 8, ptr %11) #11
  call void @llvm.lifetime.end.p0(i64 4, ptr %10) #11
  %56 = load i32, ptr %12, align 4
  switch i32 %56, label %61 [
    i32 0, label %57
    i32 1, label %59
    i32 2, label %58
  ]

57:                                               ; preds = %55
  br label %13

58:                                               ; preds = %55
  store i32 0, ptr %5, align 4
  br label %59

59:                                               ; preds = %58, %55
  %60 = load i32, ptr %5, align 4
  ret i32 %60

61:                                               ; preds = %55
  unreachable
}