; Function Attrs: nounwind uwtable
define internal range(i32 -1, 1) i32 @person_email_atom_parser(ptr readnone captures(none) %0, ptr noundef captures(none) %1, ptr noundef %2, ptr noundef %3) #0 {
  %.not.i40 = icmp eq ptr %2, null
  br i1 %.not.i40, label %.thread33, label %.preheader.preheader.i.lr.ph

.preheader.preheader.i.lr.ph:                     ; preds = %4
  %5 = getelementptr inbounds nuw i8, ptr %1, i64 24
  br label %.preheader.preheader.i

.preheader.preheader.i:                           ; preds = %48, %.preheader.preheader.i.lr.ph
  %.02041 = phi ptr [ %2, %.preheader.preheader.i.lr.ph ], [ %49, %48 ]
  %scevgep.i = getelementptr i8, ptr %.02041, i64 4
  br label %.preheader.i

.preheader.i:                                     ; preds = %6, %.preheader.preheader.i
  %.07.i.i = phi ptr [ %8, %6 ], [ %.02041, %.preheader.preheader.i ]
  %.06.i.idx.i = phi i64 [ %.06.i.add.i, %6 ], [ 0, %.preheader.preheader.i ]
  %exitcond.i = icmp eq i64 %.06.i.idx.i, 4
  br i1 %exitcond.i, label %.loopexit, label %6

6:                                                ; preds = %.preheader.i
  %.06.i.ptr.i = getelementptr inbounds nuw i8, ptr @.str.87, i64 %.06.i.idx.i
  %7 = load i8, ptr %.06.i.ptr.i, align 1, !tbaa !15
  %8 = getelementptr inbounds nuw i8, ptr %.07.i.i, i64 1
  %9 = load i8, ptr %.07.i.i, align 1, !tbaa !15
  %.06.i.add.i = add nuw nsw i64 %.06.i.idx.i, 1
  %10 = icmp eq i8 %9, %7
  br i1 %10, label %.preheader.i, label %skip_prefix.exit.i, !llvm.loop !31

skip_prefix.exit.i:                               ; preds = %6
  %scevgep22.i = getelementptr i8, ptr %.02041, i64 9
  br label %11

11:                                               ; preds = %12, %skip_prefix.exit.i
  %.07.i8.i = phi ptr [ %.02041, %skip_prefix.exit.i ], [ %14, %12 ]
  %.06.i9.idx.i = phi i64 [ 0, %skip_prefix.exit.i ], [ %.06.i9.add.i, %12 ]
  %exitcond23.i = icmp eq i64 %.06.i9.idx.i, 9
  br i1 %exitcond23.i, label %.loopexit, label %12

12:                                               ; preds = %11
  %.06.i9.ptr.i = getelementptr inbounds nuw i8, ptr @.str.88, i64 %.06.i9.idx.i
  %13 = load i8, ptr %.06.i9.ptr.i, align 1, !tbaa !15
  %14 = getelementptr inbounds nuw i8, ptr %.07.i8.i, i64 1
  %15 = load i8, ptr %.07.i8.i, align 1, !tbaa !15
  %.06.i9.add.i = add nuw nsw i64 %.06.i9.idx.i, 1
  %16 = icmp eq i8 %15, %13
  br i1 %16, label %11, label %skip_prefix.exit11.i, !llvm.loop !31

skip_prefix.exit11.i:                             ; preds = %12
  %scevgep24.i = getelementptr i8, ptr %.02041, i64 7
  br label %17

17:                                               ; preds = %18, %skip_prefix.exit11.i
  %.07.i12.i = phi ptr [ %.02041, %skip_prefix.exit11.i ], [ %20, %18 ]
  %.06.i13.idx.i = phi i64 [ 0, %skip_prefix.exit11.i ], [ %.06.i13.add.i, %18 ]
  %exitcond25.i = icmp eq i64 %.06.i13.idx.i, 7
  br i1 %exitcond25.i, label %.loopexit, label %18

18:                                               ; preds = %17
  %.06.i13.ptr.i = getelementptr inbounds nuw i8, ptr @.str.86, i64 %.06.i13.idx.i
  %19 = load i8, ptr %.06.i13.ptr.i, align 1, !tbaa !15
  %20 = getelementptr inbounds nuw i8, ptr %.07.i12.i, i64 1
  %21 = load i8, ptr %.07.i12.i, align 1, !tbaa !15
  %.06.i13.add.i = add nuw nsw i64 %.06.i13.idx.i, 1
  %22 = icmp eq i8 %21, %19
  br i1 %22, label %17, label %email_atom_option_parser.exit, !llvm.loop !31

email_atom_option_parser.exit:                    ; preds = %18
  %23 = getelementptr inbounds nuw i8, ptr %1, i64 8
  %24 = load ptr, ptr %23, align 8, !tbaa !30
  %25 = tail call ptr @strchrnul(ptr noundef %24, i32 noundef 58) #24
  %26 = load i32, ptr @git_gettext_enabled, align 4, !tbaa !4
  %.not4.i.i = icmp eq i32 %26, 0
  br i1 %.not4.i.i, label %err_bad_arg.exit, label %27

27:                                               ; preds = %email_atom_option_parser.exit
  %28 = tail call ptr @dcgettext(ptr noundef null, ptr noundef nonnull @.str.81, i32 noundef 5) #23
  br label %err_bad_arg.exit

err_bad_arg.exit:                                 ; preds = %email_atom_option_parser.exit, %27
  %.0.i.i = phi ptr [ %28, %27 ], [ @.str.81, %email_atom_option_parser.exit ]
  %29 = ptrtoint ptr %25 to i64
  %30 = ptrtoint ptr %24 to i64
  %31 = sub i64 %29, %30
  %32 = trunc i64 %31 to i32
  tail call void (ptr, ptr, ...) @strbuf_addf(ptr noundef %3, ptr noundef %.0.i.i, i32 noundef %32, ptr noundef %24, ptr noundef nonnull %.02041) #23
  br label %.thread33

.loopexit:                                        ; preds = %.preheader.i, %11, %17
  %.221.ph = phi ptr [ %scevgep24.i, %17 ], [ %scevgep22.i, %11 ], [ %scevgep.i, %.preheader.i ]
  %.0.i.ph = phi i32 [ 4, %17 ], [ 2, %11 ], [ 1, %.preheader.i ]
  %33 = load i32, ptr %5, align 8, !tbaa !15
  %34 = or i32 %33, %.0.i.ph
  store i32 %34, ptr %5, align 8, !tbaa !15
  %.not = icmp eq ptr %.221.ph, null
  br i1 %.not, label %.thread33, label %35

35:                                               ; preds = %.loopexit
  %36 = load i8, ptr %.221.ph, align 1, !tbaa !15
  switch i8 %36, label %37 [
    i8 0, label %.thread33
    i8 44, label %48
  ]

37:                                               ; preds = %35
  %38 = getelementptr inbounds nuw i8, ptr %1, i64 8
  %39 = load ptr, ptr %38, align 8, !tbaa !30
  %40 = tail call ptr @strchrnul(ptr noundef %39, i32 noundef 58) #24
  %41 = load i32, ptr @git_gettext_enabled, align 4, !tbaa !4
  %.not4.i.i15 = icmp eq i32 %41, 0
  br i1 %.not4.i.i15, label %err_bad_arg.exit17, label %42

42:                                               ; preds = %37
  %43 = tail call ptr @dcgettext(ptr noundef null, ptr noundef nonnull @.str.81, i32 noundef 5) #23
  br label %err_bad_arg.exit17

err_bad_arg.exit17:                               ; preds = %37, %42
  %.0.i.i16 = phi ptr [ %43, %42 ], [ @.str.81, %37 ]
  %44 = ptrtoint ptr %40 to i64
  %45 = ptrtoint ptr %39 to i64
  %46 = sub i64 %44, %45
  %47 = trunc i64 %46 to i32
  tail call void (ptr, ptr, ...) @strbuf_addf(ptr noundef %3, ptr noundef %.0.i.i16, i32 noundef %47, ptr noundef %39, ptr noundef nonnull %.221.ph) #23
  br label %.thread33

48:                                               ; preds = %35
  %49 = getelementptr inbounds nuw i8, ptr %.221.ph, i64 1
  br label %.preheader.preheader.i

.thread33:                                        ; preds = %35, %.loopexit, %4, %err_bad_arg.exit17, %err_bad_arg.exit
  %.2 = phi i32 [ -1, %err_bad_arg.exit ], [ -1, %err_bad_arg.exit17 ], [ 0, %4 ], [ 0, %.loopexit ], [ 0, %35 ]
  ret i32 %.2
}